target datalayout = "e-m:e-p270:32:32-p271:32:32-p272:64:64-i64:64-i128:128-f80:128-n8:16:32:64-S128"
target triple = "x86_64-unknown-linux-gnu"

; Function Attrs: mustprogress uwtable
define dso_local noundef i32 @_Z20TestFixedTupleVectorv() #0 {
entry:
  %nErrorCount = alloca i32, align 4
  store i32 0, ptr %nErrorCount, align 4
  %call = call noundef i32 @_Z27TestFixedTupleVectorVariantILm2ELb1EEiv()
  %0 = load i32, ptr %nErrorCount, align 4
  %add = add nsw i32 %0, %call
  store i32 %add, ptr %nErrorCount, align 4
  %call1 = call noundef i32 @_Z27TestFixedTupleVectorVariantILm16ELb1EEiv()
  %1 = load i32, ptr %nErrorCount, align 4
  %add2 = add nsw i32 %1, %call1
  store i32 %add2, ptr %nErrorCount, align 4
  %call3 = call noundef i32 @_Z27TestFixedTupleVectorVariantILm64ELb0EEiv()
  %2 = load i32, ptr %nErrorCount, align 4
  %add4 = add nsw i32 %2, %call3
  store i32 %add4, ptr %nErrorCount, align 4
  %3 = load i32, ptr %nErrorCount, align 4
  ret i32 %3
}