; Function Attrs: mustprogress uwtable
define dso_local noundef i32 @_Z20TestFixedTupleVectorv() local_unnamed_addr #0 {
entry:
  %call = tail call noundef i32 @_Z27TestFixedTupleVectorVariantILm2ELb1EEiv()
  %call1 = tail call noundef i32 @_Z27TestFixedTupleVectorVariantILm16ELb1EEiv()
  %add2 = add nsw i32 %call1, %call
  %call3 = tail call noundef i32 @_Z27TestFixedTupleVectorVariantILm64ELb0EEiv()
  %add4 = add nsw i32 %add2, %call3
  ret i32 %add4
}